; Function Attrs: mustprogress nofree norecurse nosync nounwind willreturn memory(read, inaccessiblemem: none) uwtable
define dso_local noundef ptr @LLVMIsAMDString(ptr noundef readonly %0) local_unnamed_addr #14 {
  %.not.i.i = icmp eq ptr %0, null
  br i1 %.not.i.i, label %_ZN4llvm16dyn_cast_or_nullINS_15MetadataAsValueENS_5ValueEEEDaPT0_.exit.thread, label %2

2:                                                ; preds = %1
  %3 = load i8, ptr %0, align 8
  %4 = icmp eq i8 %3, 24
  br i1 %4, label %_ZN4llvm16dyn_cast_or_nullINS_15MetadataAsValueENS_5ValueEEEDaPT0_.exit, label %_ZN4llvm16dyn_cast_or_nullINS_15MetadataAsValueENS_5ValueEEEDaPT0_.exit.thread

_ZN4llvm16dyn_cast_or_nullINS_15MetadataAsValueENS_5ValueEEEDaPT0_.exit: ; preds = %2
  %5 = getelementptr inbounds nuw i8, ptr %0, i64 24
  %6 = load ptr, ptr %5, align 8
  %7 = load i8, ptr %6, align 4
  %8 = icmp eq i8 %7, 0
  br i1 %8, label %9, label %_ZN4llvm16dyn_cast_or_nullINS_15MetadataAsValueENS_5ValueEEEDaPT0_.exit.thread

_ZN4llvm16dyn_cast_or_nullINS_15MetadataAsValueENS_5ValueEEEDaPT0_.exit.thread: ; preds = %1, %2, %_ZN4llvm16dyn_cast_or_nullINS_15MetadataAsValueENS_5ValueEEEDaPT0_.exit
  br label %9

9:                                                ; preds = %_ZN4llvm16dyn_cast_or_nullINS_15MetadataAsValueENS_5ValueEEEDaPT0_.exit, %_ZN4llvm16dyn_cast_or_nullINS_15MetadataAsValueENS_5ValueEEEDaPT0_.exit.thread
  %.0 = phi ptr [ null, %_ZN4llvm16dyn_cast_or_nullINS_15MetadataAsValueENS_5ValueEEEDaPT0_.exit.thread ], [ %0, %_ZN4llvm16dyn_cast_or_nullINS_15MetadataAsValueENS_5ValueEEEDaPT0_.exit ]
  ret ptr %.0
}